; Function Attrs: nounwind uwtable
define internal fastcc i32 @ftp_epsv_disable(ptr noundef %0, ptr noundef %1) unnamed_addr #0 {
  %3 = getelementptr inbounds nuw i8, ptr %1, i64 920
  %4 = load i64, ptr %3, align 8
  %5 = and i64 %4, 2058
  %or.cond28 = icmp eq i64 %5, 2048
  br i1 %or.cond28, label %6, label %7

6:                                                ; preds = %2
  tail call void (ptr, ptr, ...) @Curl_failf(ptr noundef %0, ptr noundef nonnull @.str.130) #10
  br label %54

7:                                                ; preds = %2
  %.not24 = icmp eq ptr %0, null
  br i1 %.not24, label %20, label %8

8:                                                ; preds = %7
  %9 = getelementptr inbounds nuw i8, ptr %0, i64 2562
  %10 = load i64, ptr %9, align 2
  %11 = and i64 %10, 134217728
  %.not25 = icmp eq i64 %11, 0
  br i1 %.not25, label %20, label %12

12:                                               ; preds = %8
  %13 = getelementptr inbounds nuw i8, ptr %0, i64 4712
  %14 = load ptr, ptr %13, align 8, !tbaa !104
  %.not26 = icmp eq ptr %14, null
  br i1 %.not26, label %19, label %15

15:                                               ; preds = %12
  %16 = getelementptr inbounds nuw i8, ptr %14, i64 8
  %17 = load i32, ptr %16, align 8, !tbaa !105
  %18 = icmp sgt i32 %17, 0
  br i1 %18, label %19, label %20

19:                                               ; preds = %15, %12
  tail call void (ptr, ptr, ...) @Curl_infof(ptr noundef nonnull %0, ptr noundef nonnull @.str.131) #10
  %.pre = load i64, ptr %3, align 8
  br label %20

20:                                               ; preds = %19, %15, %8, %7
  %21 = phi i64 [ %.pre, %19 ], [ %4, %15 ], [ %4, %8 ], [ %4, %7 ]
  %22 = and i64 %21, -32769
  store i64 %22, ptr %3, align 8
  tail call void @Curl_conn_close(ptr noundef %0, i32 noundef 1) #10
  tail call void @Curl_conn_cf_discard_all(ptr noundef %0, ptr noundef nonnull %1, i32 noundef 1) #10
  %23 = getelementptr inbounds nuw i8, ptr %0, i64 4876
  %24 = load i32, ptr %23, align 4
  %25 = and i32 %24, -33
  store i32 %25, ptr %23, align 4
  %26 = getelementptr inbounds nuw i8, ptr %1, i64 1056
  %27 = tail call i32 (ptr, ptr, ptr, ...) @Curl_pp_sendf(ptr noundef %0, ptr noundef nonnull %26, ptr noundef nonnull @.str.51, ptr noundef nonnull @.str.39) #10
  %.not27 = icmp eq i32 %27, 0
  br i1 %.not27, label %28, label %54

28:                                               ; preds = %20
  %29 = getelementptr inbounds nuw i8, ptr %1, i64 1312
  %30 = load i32, ptr %29, align 8, !tbaa !21
  %31 = add nsw i32 %30, 1
  store i32 %31, ptr %29, align 8, !tbaa !21
  %32 = getelementptr inbounds nuw i8, ptr %0, i64 24
  %33 = load ptr, ptr %32, align 8, !tbaa !107
  %34 = getelementptr inbounds nuw i8, ptr %33, i64 1326
  %35 = load i8, ptr %34, align 2, !tbaa !138
  %.not = icmp eq i8 %35, 30
  br i1 %.not, label %_ftp_state.exit, label %36

36:                                               ; preds = %28
  %37 = getelementptr inbounds nuw i8, ptr %0, i64 2562
  %38 = load i64, ptr %37, align 2
  %39 = and i64 %38, 134217728
  %.not.i = icmp eq i64 %39, 0
  br i1 %.not.i, label %_ftp_state.exit, label %40

40:                                               ; preds = %36
  %41 = getelementptr inbounds nuw i8, ptr %0, i64 4712
  %42 = load ptr, ptr %41, align 8, !tbaa !104
  %.not20.i = icmp eq ptr %42, null
  br i1 %.not20.i, label %49, label %43

43:                                               ; preds = %40
  %44 = getelementptr inbounds nuw i8, ptr %42, i64 8
  %45 = load i32, ptr %44, align 8, !tbaa !105
  %46 = icmp sgt i32 %45, 0
  %47 = load i32, ptr getelementptr inbounds nuw (i8, ptr @Curl_trc_feat_ftp, i64 8), align 8
  %48 = icmp sgt i32 %47, 0
  %or.cond.i = select i1 %46, i1 %48, i1 false
  br i1 %or.cond.i, label %50, label %_ftp_state.exit

49:                                               ; preds = %40
  %.old.i = load i32, ptr getelementptr inbounds nuw (i8, ptr @Curl_trc_feat_ftp, i64 8), align 8, !tbaa !105
  %.old1.i = icmp sgt i32 %.old.i, 0
  br i1 %.old1.i, label %50, label %_ftp_state.exit

50:                                               ; preds = %49, %43
  %51 = zext i8 %35 to i64
  %52 = getelementptr inbounds nuw [35 x ptr], ptr @ftp_state_names, i64 0, i64 %51
  %53 = load ptr, ptr %52, align 8, !tbaa !8
  tail call void (ptr, ptr, ...) @Curl_trc_ftp(ptr noundef nonnull %0, ptr noundef nonnull @.str.7, ptr noundef %53, ptr noundef nonnull @.str.39) #10
  br label %_ftp_state.exit

_ftp_state.exit:                                  ; preds = %28, %36, %43, %49, %50
  store i8 30, ptr %34, align 2, !tbaa !138
  br label %54

54:                                               ; preds = %20, %_ftp_state.exit, %6
  %.0 = phi i32 [ 8, %6 ], [ 0, %_ftp_state.exit ], [ %27, %20 ]
  ret i32 %.0
}